target datalayout = "e-m:e-p270:32:32-p271:32:32-p272:64:64-i64:64-i128:128-f80:128-n8:16:32:64-S128"
target triple = "x86_64-unknown-linux-gnu"

%struct.QemuMutex = type { %union.pthread_mutex_t, i8 }
%union.pthread_mutex_t = type { %struct.__pthread_mutex_s }
%struct.__pthread_mutex_s = type { i32, i32, i32, i32, i32, i16, i16, %struct.__pthread_internal_list }
%struct.__pthread_internal_list = type { ptr, ptr }
%union.anon.2 = type { %struct.QTailQLink }
%struct.QTailQLink = type { ptr, ptr }
%struct.QemuLockable = type { ptr, ptr, ptr }
%struct.AioContext = type { %struct._GSource, %struct.QemuRecMutex, ptr, %struct.AioHandlerList, %struct.AioHandlerList, i32, %struct.QemuLockCnt, %struct.BHList, %struct.anon.0, i8, %struct.EventNotifier, %struct.anon.1, ptr, i32, i32, ptr, ptr, %struct.io_uring, %struct.AioHandlerSList, %struct.QEMUTimerListGroup, i32, i64, i64, i64, i64, i64, %struct.AioHandlerList, i8, i32, ptr }
%struct._GSource = type { ptr, ptr, ptr, i32, ptr, i32, i32, i32, ptr, ptr, ptr, ptr, ptr }
%struct.QemuRecMutex = type { %struct.QemuMutex }
%struct.QemuLockCnt = type { i32 }
%struct.BHList = type { ptr }
%struct.anon.0 = type { ptr, ptr }
%struct.EventNotifier = type { i32, i32, i8 }
%struct.anon.1 = type { ptr }
%struct.io_uring = type { %struct.io_uring_sq, %struct.io_uring_cq, i32, i32, i32, [3 x i32] }
%struct.io_uring_sq = type { ptr, ptr, ptr, ptr, ptr, ptr, ptr, ptr, i32, i32, i64, ptr, [4 x i32] }
%struct.io_uring_cq = type { ptr, ptr, ptr, ptr, ptr, ptr, ptr, i64, ptr, [4 x i32] }
%struct.AioHandlerSList = type { ptr }
%struct.QEMUTimerListGroup = type { [4 x ptr] }
%struct.AioHandlerList = type { ptr }
%struct.BdrvGraphRWlock = type { i32, %union.anon }
%union.anon = type { %struct.QTailQLink }

@aio_context_list_lock = internal global %struct.QemuMutex zeroinitializer, align 8
@aio_context_list = internal global %union.anon.2 { %struct.QTailQLink { ptr null, ptr @aio_context_list } }, align 8
@orphaned_reader_count = internal global i32 0, align 4

; Function Attrs: nounwind sspstrong uwtable
define internal void @qemu_lockable_unlock(ptr noundef %x) #0 {
entry:
  %x.addr = alloca ptr, align 8
  store ptr %x, ptr %x.addr, align 8
  %0 = load ptr, ptr %x.addr, align 8
  %unlock = getelementptr inbounds %struct.QemuLockable, ptr %0, i32 0, i32 2
  %1 = load ptr, ptr %unlock, align 8
  %2 = load ptr, ptr %x.addr, align 8
  %object = getelementptr inbounds %struct.QemuLockable, ptr %2, i32 0, i32 0
  %3 = load ptr, ptr %object, align 8
  call void %1(ptr noundef %3)
  ret void
}

; Function Attrs: nounwind sspstrong uwtable
define internal void @qemu_lockable_auto_unlock(ptr noundef %x) #0 {
entry:
  %x.addr = alloca ptr, align 8
  store ptr %x, ptr %x.addr, align 8
  %0 = load ptr, ptr %x.addr, align 8
  %tobool = icmp ne ptr %0, null
  br i1 %tobool, label %if.then, label %if.end

if.then:                                          ; preds = %entry
  %1 = load ptr, ptr %x.addr, align 8
  call void @qemu_lockable_unlock(ptr noundef %1)
  br label %if.end

if.end:                                           ; preds = %if.then, %entry
  ret void
}

; Function Attrs: nounwind sspstrong uwtable
define internal void @glib_autoptr_clear_QemuLockable(ptr noundef %_ptr) #0 {
entry:
  %_ptr.addr = alloca ptr, align 8
  store ptr %_ptr, ptr %_ptr.addr, align 8
  %0 = load ptr, ptr %_ptr.addr, align 8
  %tobool = icmp ne ptr %0, null
  br i1 %tobool, label %if.then, label %if.end

if.then:                                          ; preds = %entry
  %1 = load ptr, ptr %_ptr.addr, align 8
  call void @qemu_lockable_auto_unlock(ptr noundef %1)
  br label %if.end

if.end:                                           ; preds = %if.then, %entry
  ret void
}

; Function Attrs: nounwind sspstrong uwtable
define internal void @qemu_lockable_lock(ptr noundef %x) #0 {
entry:
  %x.addr = alloca ptr, align 8
  store ptr %x, ptr %x.addr, align 8
  %0 = load ptr, ptr %x.addr, align 8
  %lock = getelementptr inbounds %struct.QemuLockable, ptr %0, i32 0, i32 1
  %1 = load ptr, ptr %lock, align 8
  %2 = load ptr, ptr %x.addr, align 8
  %object = getelementptr inbounds %struct.QemuLockable, ptr %2, i32 0, i32 0
  %3 = load ptr, ptr %object, align 8
  call void %1(ptr noundef %3)
  ret void
}

; Function Attrs: nounwind sspstrong uwtable
define internal void @glib_autoptr_cleanup_QemuLockable(ptr noundef %_ptr) #0 {
entry:
  %_ptr.addr = alloca ptr, align 8
  store ptr %_ptr, ptr %_ptr.addr, align 8
  %0 = load ptr, ptr %_ptr.addr, align 8
  %1 = load ptr, ptr %0, align 8
  call void @glib_autoptr_clear_QemuLockable(ptr noundef %1)
  ret void
}

; Function Attrs: nounwind sspstrong uwtable
define internal ptr @qemu_lockable_auto_lock(ptr noundef %x) #0 {
entry:
  %x.addr = alloca ptr, align 8
  store ptr %x, ptr %x.addr, align 8
  %0 = load ptr, ptr %x.addr, align 8
  call void @qemu_lockable_lock(ptr noundef %0)
  %1 = load ptr, ptr %x.addr, align 8
  ret ptr %1
}

; Function Attrs: nounwind sspstrong uwtable
define dso_local void @unregister_aiocontext(ptr noundef %ctx) #0 {
entry:
  %x.addr.i = alloca ptr, align 8
  %lockable.addr.i = alloca ptr, align 8
  %ctx.addr = alloca ptr, align 8
  %qemu_lockable_auto5 = alloca ptr, align 8
  %.compoundliteral = alloca %struct.QemuLockable, align 8
  store ptr %ctx, ptr %ctx.addr, align 8
  %object = getelementptr inbounds %struct.QemuLockable, ptr %.compoundliteral, i32 0, i32 0
  store ptr @aio_context_list_lock, ptr %object, align 8
  %lock = getelementptr inbounds %struct.QemuLockable, ptr %.compoundliteral, i32 0, i32 1
  store ptr @qemu_mutex_lock, ptr %lock, align 8
  %unlock = getelementptr inbounds %struct.QemuLockable, ptr %.compoundliteral, i32 0, i32 2
  store ptr @qemu_mutex_unlock, ptr %unlock, align 8
  store ptr @aio_context_list_lock, ptr %x.addr.i, align 8
  store ptr %.compoundliteral, ptr %lockable.addr.i, align 8
  %0 = load ptr, ptr %x.addr.i, align 8
  %tobool.i = icmp ne ptr %0, null
  br i1 %tobool.i, label %cond.true.i, label %cond.false.i

cond.true.i:                                      ; preds = %entry
  %1 = load ptr, ptr %lockable.addr.i, align 8
  br label %qemu_make_lockable.exit

cond.false.i:                                     ; preds = %entry
  br label %qemu_make_lockable.exit

qemu_make_lockable.exit:                          ; preds = %cond.false.i, %cond.true.i
  %cond.i = phi ptr [ %1, %cond.true.i ], [ null, %cond.false.i ]
  %call1 = call ptr @qemu_lockable_auto_lock(ptr noundef %cond.i)
  store ptr %call1, ptr %qemu_lockable_auto5, align 8
  %2 = load ptr, ptr %ctx.addr, align 8
  %bdrv_graph = getelementptr inbounds %struct.AioContext, ptr %2, i32 0, i32 2
  %3 = load ptr, ptr %bdrv_graph, align 8
  %reader_count = getelementptr inbounds %struct.BdrvGraphRWlock, ptr %3, i32 0, i32 0
  %4 = load i32, ptr %reader_count, align 8
  %5 = load i32, ptr @orphaned_reader_count, align 4
  %add = add i32 %5, %4
  store i32 %add, ptr @orphaned_reader_count, align 4
  br label %do.body

do.body:                                          ; preds = %qemu_make_lockable.exit
  %6 = load ptr, ptr %ctx.addr, align 8
  %bdrv_graph2 = getelementptr inbounds %struct.AioContext, ptr %6, i32 0, i32 2
  %7 = load ptr, ptr %bdrv_graph2, align 8
  %next_aio = getelementptr inbounds %struct.BdrvGraphRWlock, ptr %7, i32 0, i32 1
  %8 = load ptr, ptr %next_aio, align 8
  %cmp = icmp ne ptr %8, null
  br i1 %cmp, label %if.then, label %if.else

if.then:                                          ; preds = %do.body
  %9 = load ptr, ptr %ctx.addr, align 8
  %bdrv_graph3 = getelementptr inbounds %struct.AioContext, ptr %9, i32 0, i32 2
  %10 = load ptr, ptr %bdrv_graph3, align 8
  %next_aio4 = getelementptr inbounds %struct.BdrvGraphRWlock, ptr %10, i32 0, i32 1
  %tql_prev = getelementptr inbounds %struct.QTailQLink, ptr %next_aio4, i32 0, i32 1
  %11 = load ptr, ptr %tql_prev, align 8
  %12 = load ptr, ptr %ctx.addr, align 8
  %bdrv_graph5 = getelementptr inbounds %struct.AioContext, ptr %12, i32 0, i32 2
  %13 = load ptr, ptr %bdrv_graph5, align 8
  %next_aio6 = getelementptr inbounds %struct.BdrvGraphRWlock, ptr %13, i32 0, i32 1
  %14 = load ptr, ptr %next_aio6, align 8
  %next_aio7 = getelementptr inbounds %struct.BdrvGraphRWlock, ptr %14, i32 0, i32 1
  %tql_prev8 = getelementptr inbounds %struct.QTailQLink, ptr %next_aio7, i32 0, i32 1
  store ptr %11, ptr %tql_prev8, align 8
  br label %if.end

if.else:                                          ; preds = %do.body
  %15 = load ptr, ptr %ctx.addr, align 8
  %bdrv_graph9 = getelementptr inbounds %struct.AioContext, ptr %15, i32 0, i32 2
  %16 = load ptr, ptr %bdrv_graph9, align 8
  %next_aio10 = getelementptr inbounds %struct.BdrvGraphRWlock, ptr %16, i32 0, i32 1
  %tql_prev11 = getelementptr inbounds %struct.QTailQLink, ptr %next_aio10, i32 0, i32 1
  %17 = load ptr, ptr %tql_prev11, align 8
  %18 = getelementptr inbounds %struct.QTailQLink, ptr @aio_context_list, i32 0, i32 1
  store ptr %17, ptr %18, align 8
  br label %if.end

if.end:                                           ; preds = %if.else, %if.then
  %19 = load ptr, ptr %ctx.addr, align 8
  %bdrv_graph12 = getelementptr inbounds %struct.AioContext, ptr %19, i32 0, i32 2
  %20 = load ptr, ptr %bdrv_graph12, align 8
  %next_aio13 = getelementptr inbounds %struct.BdrvGraphRWlock, ptr %20, i32 0, i32 1
  %21 = load ptr, ptr %next_aio13, align 8
  %22 = load ptr, ptr %ctx.addr, align 8
  %bdrv_graph14 = getelementptr inbounds %struct.AioContext, ptr %22, i32 0, i32 2
  %23 = load ptr, ptr %bdrv_graph14, align 8
  %next_aio15 = getelementptr inbounds %struct.BdrvGraphRWlock, ptr %23, i32 0, i32 1
  %tql_prev16 = getelementptr inbounds %struct.QTailQLink, ptr %next_aio15, i32 0, i32 1
  %24 = load ptr, ptr %tql_prev16, align 8
  %tql_next = getelementptr inbounds %struct.QTailQLink, ptr %24, i32 0, i32 0
  store ptr %21, ptr %tql_next, align 8
  %25 = load ptr, ptr %ctx.addr, align 8
  %bdrv_graph17 = getelementptr inbounds %struct.AioContext, ptr %25, i32 0, i32 2
  %26 = load ptr, ptr %bdrv_graph17, align 8
  %next_aio18 = getelementptr inbounds %struct.BdrvGraphRWlock, ptr %26, i32 0, i32 1
  %tql_prev19 = getelementptr inbounds %struct.QTailQLink, ptr %next_aio18, i32 0, i32 1
  store ptr null, ptr %tql_prev19, align 8
  %27 = load ptr, ptr %ctx.addr, align 8
  %bdrv_graph20 = getelementptr inbounds %struct.AioContext, ptr %27, i32 0, i32 2
  %28 = load ptr, ptr %bdrv_graph20, align 8
  %next_aio21 = getelementptr inbounds %struct.BdrvGraphRWlock, ptr %28, i32 0, i32 1
  %tql_next22 = getelementptr inbounds %struct.QTailQLink, ptr %next_aio21, i32 0, i32 0
  store ptr null, ptr %tql_next22, align 8
  %29 = load ptr, ptr %ctx.addr, align 8
  %bdrv_graph23 = getelementptr inbounds %struct.AioContext, ptr %29, i32 0, i32 2
  %30 = load ptr, ptr %bdrv_graph23, align 8
  %next_aio24 = getelementptr inbounds %struct.BdrvGraphRWlock, ptr %30, i32 0, i32 1
  store ptr null, ptr %next_aio24, align 8
  br label %do.cond

do.cond:                                          ; preds = %if.end
  br label %do.end

do.end:                                           ; preds = %do.cond
  %31 = load ptr, ptr %ctx.addr, align 8
  %bdrv_graph25 = getelementptr inbounds %struct.AioContext, ptr %31, i32 0, i32 2
  %32 = load ptr, ptr %bdrv_graph25, align 8
  call void @g_free(ptr noundef %32)
  call void @glib_autoptr_cleanup_QemuLockable(ptr noundef %qemu_lockable_auto5)
  ret void
}