; Function Attrs: nounwind sspstrong uwtable
define dso_local void @unregister_aiocontext(ptr noundef readonly captures(none) %ctx) local_unnamed_addr #0 {
entry:
  %0 = load atomic i64, ptr @qemu_mutex_lock_func monotonic, align 8
  %1 = inttoptr i64 %0 to ptr
  tail call void %1(ptr noundef nonnull @aio_context_list_lock, ptr noundef nonnull @.str.7, i32 noundef 122) #5
  %bdrv_graph = getelementptr inbounds nuw i8, ptr %ctx, i64 144
  %2 = load ptr, ptr %bdrv_graph, align 8
  %3 = load i32, ptr %2, align 8
  %4 = load i32, ptr @orphaned_reader_count, align 4
  %add = add i32 %4, %3
  store i32 %add, ptr @orphaned_reader_count, align 4
  %next_aio = getelementptr inbounds nuw i8, ptr %2, i64 8
  %5 = load ptr, ptr %next_aio, align 8
  %cmp.not = icmp eq ptr %5, null
  %tql_prev11 = getelementptr inbounds nuw i8, ptr %2, i64 16
  %6 = load ptr, ptr %tql_prev11, align 8
  br i1 %cmp.not, label %if.else, label %if.then

if.then:                                          ; preds = %entry
  %tql_prev8 = getelementptr inbounds nuw i8, ptr %5, i64 16
  store ptr %6, ptr %tql_prev8, align 8
  %.pre = load ptr, ptr %bdrv_graph, align 8
  %tql_prev16.phi.trans.insert = getelementptr inbounds nuw i8, ptr %.pre, i64 16
  %.pre11 = load ptr, ptr %tql_prev16.phi.trans.insert, align 8
  br label %glib_autoptr_cleanup_QemuLockable.exit

if.else:                                          ; preds = %entry
  store ptr %6, ptr getelementptr inbounds nuw (i8, ptr @aio_context_list, i64 8), align 8
  br label %glib_autoptr_cleanup_QemuLockable.exit

glib_autoptr_cleanup_QemuLockable.exit:           ; preds = %if.else, %if.then
  %7 = phi ptr [ %6, %if.else ], [ %.pre11, %if.then ]
  %8 = phi ptr [ %2, %if.else ], [ %.pre, %if.then ]
  %next_aio13 = getelementptr inbounds nuw i8, ptr %8, i64 8
  %9 = load ptr, ptr %next_aio13, align 8
  store ptr %9, ptr %7, align 8
  %10 = load ptr, ptr %bdrv_graph, align 8
  %tql_prev19 = getelementptr inbounds nuw i8, ptr %10, i64 16
  store ptr null, ptr %tql_prev19, align 8
  %11 = load ptr, ptr %bdrv_graph, align 8
  %next_aio21 = getelementptr inbounds nuw i8, ptr %11, i64 8
  store ptr null, ptr %next_aio21, align 8
  %12 = load ptr, ptr %bdrv_graph, align 8
  %next_aio24 = getelementptr inbounds nuw i8, ptr %12, i64 8
  store ptr null, ptr %next_aio24, align 8
  %13 = load ptr, ptr %bdrv_graph, align 8
  tail call void @g_free(ptr noundef %13) #5
  tail call void @qemu_mutex_unlock_impl(ptr noundef nonnull @aio_context_list_lock, ptr noundef nonnull @.str.7, i32 noundef 132) #5
  ret void
}